target datalayout = "e-m:e-p270:32:32-p271:32:32-p272:64:64-i64:64-i128:128-f80:128-n8:16:32:64-S128"
target triple = "x86_64-pc-linux-gnu"

%struct.SlruCtlData = type { ptr, i16, i8, i32, ptr, [64 x i8] }
%struct.proclist_head = type { i32, i32 }
%struct.MultiXactStateData = type { i32, i32, i8, i32, i32, i32, i8, i32, i32, i32, i32, i32, %struct.ConditionVariable, [0 x i32] }
%struct.ConditionVariable = type { i8, %struct.proclist_head }

@OldestMemberMXactId = internal global ptr null, align 8
@MultiXactState = internal global ptr null, align 8
@OldestVisibleMXactId = internal global ptr null, align 8
@MultiXactOffsetCtlData = internal global %struct.SlruCtlData zeroinitializer, align 8
@MultiXactMemberCtlData = internal global %struct.SlruCtlData zeroinitializer, align 8
@MaxBackends = external global i32, align 4
@max_prepared_xacts = external global i32, align 4
@multixact_offset_buffers = external global i32, align 4
@multixact_member_buffers = external global i32, align 4
@.str.8 = private unnamed_addr constant [17 x i8] c"multixact_offset\00", align 1
@.str.9 = private unnamed_addr constant [21 x i8] c"pg_multixact/offsets\00", align 1
@.str.10 = private unnamed_addr constant [17 x i8] c"multixact_member\00", align 1
@.str.11 = private unnamed_addr constant [21 x i8] c"pg_multixact/members\00", align 1
@.str.12 = private unnamed_addr constant [23 x i8] c"Shared MultiXact State\00", align 1
@IsUnderPostmaster = external global i8, align 1

; Function Attrs: nounwind uwtable
define dso_local void @MultiXactShmemInit() #0 {
  %1 = alloca i8, align 1
  %2 = alloca ptr, align 8
  %3 = alloca i32, align 4
  %4 = alloca i64, align 8
  %5 = alloca ptr, align 8
  %6 = alloca ptr, align 8
  call void @llvm.lifetime.start.p0(i64 1, ptr %1) #9
  store ptr @MultiXactOffsetPagePrecedes, ptr getelementptr inbounds nuw (%struct.SlruCtlData, ptr @MultiXactOffsetCtlData, i32 0, i32 4), align 8
  store ptr @MultiXactMemberPagePrecedes, ptr getelementptr inbounds nuw (%struct.SlruCtlData, ptr @MultiXactMemberCtlData, i32 0, i32 4), align 8
  %7 = load i32, ptr @multixact_offset_buffers, align 4
  call void @SimpleLruInit(ptr noundef @MultiXactOffsetCtlData, ptr noundef @.str.8, i32 noundef %7, i32 noundef 0, ptr noundef @.str.9, i32 noundef 56, i32 noundef 86, i32 noundef 3, i1 noundef zeroext false)
  br label %8

8:                                                ; preds = %0
  br label %9

9:                                                ; preds = %8
  br label %10

10:                                               ; preds = %9
  %11 = load i32, ptr @multixact_member_buffers, align 4
  call void @SimpleLruInit(ptr noundef @MultiXactMemberCtlData, ptr noundef @.str.10, i32 noundef %11, i32 noundef 0, ptr noundef @.str.11, i32 noundef 57, i32 noundef 85, i32 noundef 4, i1 noundef zeroext false)
  %12 = load i32, ptr @MaxBackends, align 4
  %13 = load i32, ptr @max_prepared_xacts, align 4
  %14 = add i32 %12, %13
  %15 = sext i32 %14 to i64
  %16 = call i64 @mul_size(i64 noundef 8, i64 noundef %15)
  %17 = call i64 @add_size(i64 noundef 60, i64 noundef %16)
  %18 = call ptr @ShmemInitStruct(ptr noundef @.str.12, i64 noundef %17, ptr noundef %1)
  store ptr %18, ptr @MultiXactState, align 8
  %19 = load i8, ptr @IsUnderPostmaster, align 1, !range !4, !noundef !5
  %20 = trunc i8 %19 to i1
  br i1 %20, label %67, label %21

21:                                               ; preds = %10
  br label %22

22:                                               ; preds = %21
  call void @llvm.lifetime.start.p0(i64 8, ptr %2) #9
  %23 = load ptr, ptr @MultiXactState, align 8
  store ptr %23, ptr %2, align 8
  call void @llvm.lifetime.start.p0(i64 4, ptr %3) #9
  store i32 0, ptr %3, align 4
  call void @llvm.lifetime.start.p0(i64 8, ptr %4) #9
  %24 = load i32, ptr @MaxBackends, align 4
  %25 = load i32, ptr @max_prepared_xacts, align 4
  %26 = add i32 %24, %25
  %27 = sext i32 %26 to i64
  %28 = call i64 @mul_size(i64 noundef 8, i64 noundef %27)
  %29 = call i64 @add_size(i64 noundef 60, i64 noundef %28)
  store i64 %29, ptr %4, align 8
  %30 = load ptr, ptr %2, align 8
  %31 = ptrtoint ptr %30 to i64
  %32 = and i64 %31, 7
  %33 = icmp eq i64 %32, 0
  br i1 %33, label %34, label %57

34:                                               ; preds = %22
  %35 = load i64, ptr %4, align 8
  %36 = and i64 %35, 7
  %37 = icmp eq i64 %36, 0
  br i1 %37, label %38, label %57

38:                                               ; preds = %34
  %39 = load i32, ptr %3, align 4
  %40 = icmp eq i32 %39, 0
  br i1 %40, label %41, label %57

41:                                               ; preds = %38
  %42 = load i64, ptr %4, align 8
  %43 = icmp ule i64 %42, 1024
  br i1 %43, label %44, label %57

44:                                               ; preds = %41
  call void @llvm.lifetime.start.p0(i64 8, ptr %5) #9
  %45 = load ptr, ptr %2, align 8
  store ptr %45, ptr %5, align 8
  call void @llvm.lifetime.start.p0(i64 8, ptr %6) #9
  %46 = load ptr, ptr %5, align 8
  %47 = load i64, ptr %4, align 8
  %48 = getelementptr inbounds nuw i8, ptr %46, i64 %47
  store ptr %48, ptr %6, align 8
  br label %49

49:                                               ; preds = %53, %44
  %50 = load ptr, ptr %5, align 8
  %51 = load ptr, ptr %6, align 8
  %52 = icmp ult ptr %50, %51
  br i1 %52, label %53, label %56

53:                                               ; preds = %49
  %54 = load ptr, ptr %5, align 8
  %55 = getelementptr inbounds nuw i64, ptr %54, i32 1
  store ptr %55, ptr %5, align 8
  store i64 0, ptr %54, align 8
  br label %49, !llvm.loop !18

56:                                               ; preds = %49
  call void @llvm.lifetime.end.p0(i64 8, ptr %6) #9
  call void @llvm.lifetime.end.p0(i64 8, ptr %5) #9
  br label %62

57:                                               ; preds = %41, %38, %34, %22
  %58 = load ptr, ptr %2, align 8
  %59 = load i32, ptr %3, align 4
  %60 = trunc i32 %59 to i8
  %61 = load i64, ptr %4, align 8
  call void @llvm.memset.p0.i64(ptr align 1 %58, i8 %60, i64 %61, i1 false)
  br label %62

62:                                               ; preds = %57, %56
  call void @llvm.lifetime.end.p0(i64 8, ptr %4) #9
  call void @llvm.lifetime.end.p0(i64 4, ptr %3) #9
  call void @llvm.lifetime.end.p0(i64 8, ptr %2) #9
  br label %63

63:                                               ; preds = %62
  br label %64

64:                                               ; preds = %63
  %65 = load ptr, ptr @MultiXactState, align 8
  %66 = getelementptr inbounds nuw %struct.MultiXactStateData, ptr %65, i32 0, i32 12
  call void @ConditionVariableInit(ptr noundef %66)
  br label %68

67:                                               ; preds = %10
  br label %68

68:                                               ; preds = %67, %64
  %69 = load ptr, ptr @MultiXactState, align 8
  %70 = getelementptr inbounds nuw %struct.MultiXactStateData, ptr %69, i32 0, i32 13
  %71 = getelementptr inbounds [0 x i32], ptr %70, i64 0, i64 0
  store ptr %71, ptr @OldestMemberMXactId, align 8
  %72 = load ptr, ptr @OldestMemberMXactId, align 8
  %73 = load i32, ptr @MaxBackends, align 4
  %74 = load i32, ptr @max_prepared_xacts, align 4
  %75 = add i32 %73, %74
  %76 = sext i32 %75 to i64
  %77 = getelementptr inbounds i32, ptr %72, i64 %76
  store ptr %77, ptr @OldestVisibleMXactId, align 8
  call void @llvm.lifetime.end.p0(i64 1, ptr %1) #9
  ret void
}