; Function Attrs: nounwind uwtable
define dso_local void @MultiXactShmemInit() local_unnamed_addr #0 {
  %1 = alloca i8, align 1
  call void @llvm.lifetime.start.p0(i64 1, ptr nonnull %1) #13
  store ptr @MultiXactOffsetPagePrecedes, ptr getelementptr inbounds nuw (i8, ptr @MultiXactOffsetCtlData, i64 16), align 8
  store ptr @MultiXactMemberPagePrecedes, ptr getelementptr inbounds nuw (i8, ptr @MultiXactMemberCtlData, i64 16), align 8
  %2 = load i32, ptr @multixact_offset_buffers, align 4
  tail call void @SimpleLruInit(ptr noundef nonnull @MultiXactOffsetCtlData, ptr noundef nonnull @.str.8, i32 noundef %2, i32 noundef 0, ptr noundef nonnull @.str.9, i32 noundef 56, i32 noundef 86, i32 noundef 3, i1 noundef zeroext false) #13
  %3 = load i32, ptr @multixact_member_buffers, align 4
  tail call void @SimpleLruInit(ptr noundef nonnull @MultiXactMemberCtlData, ptr noundef nonnull @.str.10, i32 noundef %3, i32 noundef 0, ptr noundef nonnull @.str.11, i32 noundef 57, i32 noundef 85, i32 noundef 4, i1 noundef zeroext false) #13
  %4 = load i32, ptr @MaxBackends, align 4
  %5 = load i32, ptr @max_prepared_xacts, align 4
  %6 = add i32 %5, %4
  %7 = sext i32 %6 to i64
  %8 = tail call i64 @mul_size(i64 noundef 8, i64 noundef %7) #13
  %9 = tail call i64 @add_size(i64 noundef 60, i64 noundef %8) #13
  %10 = call ptr @ShmemInitStruct(ptr noundef nonnull @.str.12, i64 noundef %9, ptr noundef nonnull %1) #13
  store ptr %10, ptr @MultiXactState, align 8
  %11 = load i8, ptr @IsUnderPostmaster, align 1, !range !7, !noundef !8
  %12 = trunc nuw i8 %11 to i1
  br i1 %12, label %36, label %13

13:                                               ; preds = %0
  %14 = load i32, ptr @MaxBackends, align 4
  %15 = load i32, ptr @max_prepared_xacts, align 4
  %16 = add i32 %15, %14
  %17 = sext i32 %16 to i64
  %18 = call i64 @mul_size(i64 noundef 8, i64 noundef %17) #13
  %19 = call i64 @add_size(i64 noundef 60, i64 noundef %18) #13
  %20 = ptrtoint ptr %10 to i64
  %21 = and i64 %20, 7
  %22 = icmp eq i64 %21, 0
  br i1 %22, label %23, label %.loopexit.sink.split

23:                                               ; preds = %13
  %24 = and i64 %19, 7
  %25 = icmp eq i64 %24, 0
  %26 = icmp ult i64 %19, 1025
  %or.cond3 = and i1 %26, %25
  br i1 %or.cond3, label %27, label %.loopexit.sink.split

27:                                               ; preds = %23
  %.not = icmp eq i64 %19, 0
  br i1 %.not, label %.loopexit, label %.lr.ph.preheader

.lr.ph.preheader:                                 ; preds = %27
  %28 = add i64 %19, %20
  %29 = add i64 %20, 8
  %umax = call i64 @llvm.umax.i64(i64 %28, i64 %29)
  %30 = xor i64 %20, -1
  %31 = add i64 %umax, %30
  %32 = and i64 %31, -8
  %33 = add i64 %32, 8
  br label %.loopexit.sink.split

.loopexit.sink.split:                             ; preds = %13, %23, %.lr.ph.preheader
  %.sink = phi i64 [ %33, %.lr.ph.preheader ], [ %19, %23 ], [ %19, %13 ]
  call void @llvm.memset.p0.i64(ptr align 1 %10, i8 0, i64 %.sink, i1 false)
  br label %.loopexit

.loopexit:                                        ; preds = %.loopexit.sink.split, %27
  %34 = load ptr, ptr @MultiXactState, align 8
  %35 = getelementptr inbounds nuw i8, ptr %34, i64 48
  call void @ConditionVariableInit(ptr noundef nonnull %35) #13
  %.pre = load ptr, ptr @MultiXactState, align 8
  br label %36

36:                                               ; preds = %0, %.loopexit
  %37 = phi ptr [ %10, %0 ], [ %.pre, %.loopexit ]
  %38 = getelementptr inbounds nuw i8, ptr %37, i64 60
  store ptr %38, ptr @OldestMemberMXactId, align 8
  %39 = load i32, ptr @MaxBackends, align 4
  %40 = load i32, ptr @max_prepared_xacts, align 4
  %41 = add i32 %40, %39
  %42 = sext i32 %41 to i64
  %43 = getelementptr inbounds i32, ptr %38, i64 %42
  store ptr %43, ptr @OldestVisibleMXactId, align 8
  call void @llvm.lifetime.end.p0(i64 1, ptr nonnull %1) #13
  ret void
}